target datalayout = "e-m:e-p270:32:32-p271:32:32-p272:64:64-i64:64-i128:128-f80:128-n8:16:32:64-S128"
target triple = "x86_64-pc-linux-gnu"

%struct.FLAC__BitReader = type { ptr, i32, i32, i32, i32, i32, i32, i32, i32, i32, i32, i32, ptr, ptr }

; Function Attrs: nounwind sspstrong uwtable
define hidden void @FLAC__bitreader_reset_read_crc16(ptr noundef %0, i16 noundef zeroext %1) #0 {
  %3 = alloca ptr, align 8
  %4 = alloca i16, align 2
  store ptr %0, ptr %3, align 8, !tbaa !3
  store i16 %1, ptr %4, align 2, !tbaa !23
  %5 = load i16, ptr %4, align 2, !tbaa !23
  %6 = zext i16 %5 to i32
  %7 = load ptr, ptr %3, align 8, !tbaa !3
  %8 = getelementptr inbounds nuw %struct.FLAC__BitReader, ptr %7, i32 0, i32 6
  store i32 %6, ptr %8, align 4, !tbaa !25
  %9 = load ptr, ptr %3, align 8, !tbaa !3
  %10 = getelementptr inbounds nuw %struct.FLAC__BitReader, ptr %9, i32 0, i32 4
  %11 = load i32, ptr %10, align 4, !tbaa !16
  %12 = load ptr, ptr %3, align 8, !tbaa !3
  %13 = getelementptr inbounds nuw %struct.FLAC__BitReader, ptr %12, i32 0, i32 7
  store i32 %11, ptr %13, align 8, !tbaa !26
  %14 = load ptr, ptr %3, align 8, !tbaa !3
  %15 = getelementptr inbounds nuw %struct.FLAC__BitReader, ptr %14, i32 0, i32 5
  %16 = load i32, ptr %15, align 8, !tbaa !15
  %17 = load ptr, ptr %3, align 8, !tbaa !3
  %18 = getelementptr inbounds nuw %struct.FLAC__BitReader, ptr %17, i32 0, i32 8
  store i32 %16, ptr %18, align 4, !tbaa !27
  ret void
}