; Function Attrs: mustprogress nofree norecurse nosync nounwind sspstrong willreturn memory(argmem: readwrite) uwtable
define hidden void @FLAC__bitreader_reset_read_crc16(ptr noundef captures(none) initializes((28, 40)) %0, i16 noundef zeroext %1) local_unnamed_addr #8 {
  %3 = zext i16 %1 to i32
  %4 = getelementptr inbounds nuw i8, ptr %0, i64 28
  store i32 %3, ptr %4, align 4, !tbaa !18
  %5 = getelementptr inbounds nuw i8, ptr %0, i64 20
  %6 = load i32, ptr %5, align 4, !tbaa !16
  %7 = getelementptr inbounds nuw i8, ptr %0, i64 32
  store i32 %6, ptr %7, align 8, !tbaa !19
  %8 = getelementptr inbounds nuw i8, ptr %0, i64 24
  %9 = load i32, ptr %8, align 8, !tbaa !17
  %10 = getelementptr inbounds nuw i8, ptr %0, i64 36
  store i32 %9, ptr %10, align 4, !tbaa !20
  ret void
}